; Function Attrs: mustprogress uwtable
define noundef range(i64 -2147483648, 2147483648) i64 @_ZNK10open_spiel11negotiation16NegotiationState15EncodeUtteranceERKSt6vectorIiSaIiEE(ptr nocapture noundef nonnull readonly align 8 dereferenceable(208) %0, ptr nocapture noundef nonnull readonly align 8 dereferenceable(24) %1) local_unnamed_addr #3 align 2 personality ptr @__gxx_personality_v0 {
  %3 = alloca i64, align 8
  %4 = alloca i32, align 4
  %5 = alloca %"class.std::__cxx11::basic_string", align 8
  %6 = alloca i32, align 4
  %7 = getelementptr inbounds nuw i8, ptr %1, i64 8
  %8 = load ptr, ptr %7, align 8
  %9 = load ptr, ptr %1, align 8
  %10 = ptrtoint ptr %8 to i64
  %11 = ptrtoint ptr %9 to i64
  %12 = sub i64 %10, %11
  %13 = ashr exact i64 %12, 2
  store i64 %13, ptr %3, align 8
  %14 = getelementptr inbounds nuw i8, ptr %0, i64 84
  %15 = load i32, ptr %14, align 4
  store i32 %15, ptr %4, align 4
  %16 = sext i32 %15 to i64
  %17 = icmp eq i64 %13, %16
  br i1 %17, label %22, label %18

18:                                               ; preds = %2
  store i32 406, ptr %6, align 4
  call void @_ZN10open_spiel8internal11SpielStrCatIJRA142_KcRA2_S2_iS6_RA35_S2_RA18_S2_RA4_S2_RmRA20_S2_RiEEENSt7__cxx1112basic_stringIcSt11char_traitsIcESaIcEEEDpOT_(ptr dead_on_unwind nonnull writable sret(%"class.std::__cxx11::basic_string") align 8 %5, ptr noundef nonnull align 1 dereferenceable(142) @.str.18, ptr noundef nonnull align 1 dereferenceable(2) @.str.19, ptr noundef nonnull align 4 dereferenceable(4) %6, ptr noundef nonnull align 1 dereferenceable(2) @.str.20, ptr noundef nonnull align 1 dereferenceable(35) @.str.54, ptr noundef nonnull align 1 dereferenceable(18) @.str.55, ptr noundef nonnull align 1 dereferenceable(4) @.str.23, ptr noundef nonnull align 8 dereferenceable(8) %3, ptr noundef nonnull align 1 dereferenceable(20) @.str.56, ptr noundef nonnull align 4 dereferenceable(4) %4)
  invoke void @_ZN10open_spiel15SpielFatalErrorERKNSt7__cxx1112basic_stringIcSt11char_traitsIcESaIcEEE(ptr noundef nonnull align 8 dereferenceable(32) %5) #31
          to label %19 unwind label %20

19:                                               ; preds = %18
  unreachable

20:                                               ; preds = %18
  %21 = landingpad { ptr, i32 }
          cleanup
  call void @_ZNSt7__cxx1112basic_stringIcSt11char_traitsIcESaIcEED1Ev(ptr noundef nonnull align 8 dereferenceable(32) %5) #32
  resume { ptr, i32 } %21

22:                                               ; preds = %2
  %23 = getelementptr inbounds nuw i8, ptr %0, i64 64
  %24 = load ptr, ptr %23, align 8
  %25 = getelementptr inbounds nuw i8, ptr %24, i64 284
  %26 = load i32, ptr %25, align 4
  %27 = sitofp i32 %26 to double
  %28 = tail call noundef double @pow(double noundef 6.000000e+00, double noundef %27) #32
  %29 = getelementptr inbounds nuw i8, ptr %0, i64 80
  %30 = load i32, ptr %29, align 8
  %31 = load ptr, ptr %1, align 8
  %32 = load ptr, ptr %7, align 8
  %.not9.i = icmp eq ptr %31, %32
  br i1 %.not9.i, label %_ZNK10open_spiel11negotiation16NegotiationState13EncodeIntegerERKSt6vectorIiSaIiEEi.exit, label %.lr.ph.i

.lr.ph.i:                                         ; preds = %22, %.lr.ph.i
  %.011.i = phi i32 [ %35, %.lr.ph.i ], [ 0, %22 ]
  %.sroa.06.010.i = phi ptr [ %36, %.lr.ph.i ], [ %31, %22 ]
  %33 = load i32, ptr %.sroa.06.010.i, align 4
  %34 = mul nsw i32 %.011.i, %30
  %35 = add nsw i32 %33, %34
  %36 = getelementptr inbounds i8, ptr %.sroa.06.010.i, i64 4
  %.not.i = icmp eq ptr %36, %32
  br i1 %.not.i, label %_ZNK10open_spiel11negotiation16NegotiationState13EncodeIntegerERKSt6vectorIiSaIiEEi.exit, label %.lr.ph.i

_ZNK10open_spiel11negotiation16NegotiationState13EncodeIntegerERKSt6vectorIiSaIiEEi.exit: ; preds = %.lr.ph.i, %22
  %.0.lcssa.i = phi i32 [ 0, %22 ], [ %35, %.lr.ph.i ]
  %37 = fptosi double %28 to i32
  %38 = add nsw i32 %37, 1
  %39 = add nsw i32 %38, %.0.lcssa.i
  %40 = sext i32 %39 to i64
  ret i64 %40
}